; Function Attrs: mustprogress uwtable
define void @_ZNK11StringTable18copyToLegacySymtabEP8t_symtab(ptr noundef nonnull readonly align 8 captures(none) dereferenceable(24) %0, ptr noundef captures(none) %1) local_unnamed_addr #0 align 2 {
  %3 = load ptr, ptr %0, align 8, !tbaa !85
  %4 = getelementptr inbounds nuw i8, ptr %0, i64 8
  %5 = load ptr, ptr %4, align 8, !tbaa !85
  %.not8 = icmp eq ptr %3, %5
  br i1 %.not8, label %._crit_edge, label %.lr.ph

._crit_edge:                                      ; preds = %.lr.ph, %2
  ret void

.lr.ph:                                           ; preds = %2, %.lr.ph
  %.sroa.05.09 = phi ptr [ %8, %.lr.ph ], [ %3, %2 ]
  %6 = load ptr, ptr %.sroa.05.09, align 8, !tbaa !19
  %7 = tail call noundef ptr @_Z10put_symtabP8t_symtabPKc(ptr noundef %1, ptr noundef %6)
  %8 = getelementptr inbounds nuw i8, ptr %.sroa.05.09, i64 32
  %.not = icmp eq ptr %8, %5
  br i1 %.not, label %._crit_edge, label %.lr.ph
}